target datalayout = "e-m:e-p270:32:32-p271:32:32-p272:64:64-i64:64-i128:128-f80:128-n8:16:32:64-S128"
target triple = "x86_64-pc-linux-gnu"

%struct._lv_fragment_class_t = type { ptr, ptr, ptr, ptr, ptr, ptr, ptr, ptr, ptr, i64 }
%struct._lv_fragment_t = type { ptr, ptr, ptr, ptr }
%struct._lv_fragment_managed_states_t = type { ptr, ptr, ptr, ptr, i8, i8, i8 }

; Function Attrs: nounwind uwtable
define void @lv_fragment_delete_obj(ptr noundef %0) #0 {
  %2 = alloca ptr, align 8
  %3 = alloca ptr, align 8
  %4 = alloca i32, align 4
  %5 = alloca i32, align 4
  %6 = alloca i32, align 4
  %7 = alloca i8, align 1
  %8 = alloca ptr, align 8
  %9 = alloca ptr, align 8
  store ptr %0, ptr %2, align 8, !tbaa !3
  br label %10

10:                                               ; preds = %1
  %11 = load ptr, ptr %2, align 8, !tbaa !3
  %12 = icmp ne ptr %11, null
  br i1 %12, label %17, label %13

13:                                               ; preds = %10
  br label %14

14:                                               ; preds = %13
  br label %15

15:                                               ; preds = %14
  br label %16

16:                                               ; preds = %15, %16
  br label %16

17:                                               ; preds = %10
  br label %18

18:                                               ; preds = %17
  %19 = load ptr, ptr %2, align 8, !tbaa !3
  %20 = getelementptr inbounds nuw %struct._lv_fragment_t, ptr %19, i32 0, i32 2
  %21 = load ptr, ptr %20, align 8, !tbaa !13
  call void @lv_fragment_manager_delete_obj(ptr noundef %21)
  call void @llvm.lifetime.start.p0(i64 8, ptr %3) #3
  %22 = load ptr, ptr %2, align 8, !tbaa !3
  %23 = getelementptr inbounds nuw %struct._lv_fragment_t, ptr %22, i32 0, i32 1
  %24 = load ptr, ptr %23, align 8, !tbaa !15
  store ptr %24, ptr %3, align 8, !tbaa !3
  %25 = load ptr, ptr %3, align 8, !tbaa !3
  %26 = icmp ne ptr %25, null
  br i1 %26, label %27, label %80

27:                                               ; preds = %18
  %28 = load ptr, ptr %3, align 8, !tbaa !3
  %29 = getelementptr inbounds nuw %struct._lv_fragment_managed_states_t, ptr %28, i32 0, i32 4
  %30 = load i8, ptr %29, align 8, !tbaa !21, !range !22, !noundef !23
  %31 = trunc i8 %30 to i1
  br i1 %31, label %33, label %32

32:                                               ; preds = %27
  store i32 1, ptr %4, align 4
  br label %135

33:                                               ; preds = %27
  %34 = load ptr, ptr %3, align 8, !tbaa !3
  %35 = getelementptr inbounds nuw %struct._lv_fragment_managed_states_t, ptr %34, i32 0, i32 5
  store i8 1, ptr %35, align 1, !tbaa !24
  call void @llvm.lifetime.start.p0(i64 4, ptr %5) #3
  call void @llvm.lifetime.start.p0(i64 4, ptr %6) #3
  %36 = load ptr, ptr %2, align 8, !tbaa !3
  %37 = getelementptr inbounds nuw %struct._lv_fragment_t, ptr %36, i32 0, i32 3
  %38 = load ptr, ptr %37, align 8, !tbaa !19
  %39 = call i32 @lv_obj_get_event_count(ptr noundef %38)
  store i32 %39, ptr %6, align 4, !tbaa !25
  call void @llvm.lifetime.start.p0(i64 1, ptr %7) #3
  store i8 0, ptr %7, align 1, !tbaa !27
  store i32 0, ptr %5, align 4, !tbaa !25
  br label %40

40:                                               ; preds = %64, %33
  %41 = load i32, ptr %5, align 4, !tbaa !25
  %42 = load i32, ptr %6, align 4, !tbaa !25
  %43 = icmp ult i32 %41, %42
  br i1 %43, label %44, label %67

44:                                               ; preds = %40
  call void @llvm.lifetime.start.p0(i64 8, ptr %8) #3
  %45 = load ptr, ptr %2, align 8, !tbaa !3
  %46 = getelementptr inbounds nuw %struct._lv_fragment_t, ptr %45, i32 0, i32 3
  %47 = load ptr, ptr %46, align 8, !tbaa !19
  %48 = load i32, ptr %5, align 4, !tbaa !25
  %49 = call ptr @lv_obj_get_event_dsc(ptr noundef %47, i32 noundef %48)
  store ptr %49, ptr %8, align 8, !tbaa !3
  %50 = load ptr, ptr %8, align 8, !tbaa !3
  %51 = call ptr @lv_event_dsc_get_cb(ptr noundef %50)
  %52 = icmp eq ptr %51, @cb_delete_assertion
  br i1 %52, label %53, label %60

53:                                               ; preds = %44
  %54 = load ptr, ptr %2, align 8, !tbaa !3
  %55 = getelementptr inbounds nuw %struct._lv_fragment_t, ptr %54, i32 0, i32 3
  %56 = load ptr, ptr %55, align 8, !tbaa !19
  %57 = load i32, ptr %5, align 4, !tbaa !25
  %58 = call zeroext i1 @lv_obj_remove_event(ptr noundef %56, i32 noundef %57)
  %59 = zext i1 %58 to i8
  store i8 %59, ptr %7, align 1, !tbaa !27
  store i32 8, ptr %4, align 4
  br label %61

60:                                               ; preds = %44
  store i32 0, ptr %4, align 4
  br label %61

61:                                               ; preds = %60, %53
  call void @llvm.lifetime.end.p0(i64 8, ptr %8) #3
  %62 = load i32, ptr %4, align 4
  switch i32 %62, label %138 [
    i32 0, label %63
    i32 8, label %67
  ]

63:                                               ; preds = %61
  br label %64

64:                                               ; preds = %63
  %65 = load i32, ptr %5, align 4, !tbaa !25
  %66 = add i32 %65, 1
  store i32 %66, ptr %5, align 4, !tbaa !25
  br label %40, !llvm.loop !28

67:                                               ; preds = %61, %40
  br label %68

68:                                               ; preds = %67
  %69 = load i8, ptr %7, align 1, !tbaa !27, !range !22, !noundef !23
  %70 = trunc i8 %69 to i1
  br i1 %70, label %77, label %71

71:                                               ; preds = %68
  br label %72

72:                                               ; preds = %71
  br label %73

73:                                               ; preds = %72
  br label %74

74:                                               ; preds = %73
  br label %75

75:                                               ; preds = %76, %74
  br label %76

76:                                               ; preds = %75
  br label %75

77:                                               ; preds = %68
  br label %78

78:                                               ; preds = %77
  br label %79

79:                                               ; preds = %78
  call void @llvm.lifetime.end.p0(i64 1, ptr %7) #3
  call void @llvm.lifetime.end.p0(i64 4, ptr %6) #3
  call void @llvm.lifetime.end.p0(i64 4, ptr %5) #3
  br label %80

80:                                               ; preds = %79, %18
  br label %81

81:                                               ; preds = %80
  %82 = load ptr, ptr %2, align 8, !tbaa !3
  %83 = getelementptr inbounds nuw %struct._lv_fragment_t, ptr %82, i32 0, i32 3
  %84 = load ptr, ptr %83, align 8, !tbaa !19
  %85 = icmp ne ptr %84, null
  br i1 %85, label %92, label %86

86:                                               ; preds = %81
  br label %87

87:                                               ; preds = %86
  br label %88

88:                                               ; preds = %87
  br label %89

89:                                               ; preds = %88
  br label %90

90:                                               ; preds = %91, %89
  br label %91

91:                                               ; preds = %90
  br label %90

92:                                               ; preds = %81
  br label %93

93:                                               ; preds = %92
  br label %94

94:                                               ; preds = %93
  call void @llvm.lifetime.start.p0(i64 8, ptr %9) #3
  %95 = load ptr, ptr %2, align 8, !tbaa !3
  %96 = getelementptr inbounds nuw %struct._lv_fragment_t, ptr %95, i32 0, i32 0
  %97 = load ptr, ptr %96, align 8, !tbaa !11
  store ptr %97, ptr %9, align 8, !tbaa !3
  %98 = load ptr, ptr %9, align 8, !tbaa !3
  %99 = getelementptr inbounds nuw %struct._lv_fragment_class_t, ptr %98, i32 0, i32 6
  %100 = load ptr, ptr %99, align 8, !tbaa !30
  %101 = icmp ne ptr %100, null
  br i1 %101, label %102, label %110

102:                                              ; preds = %94
  %103 = load ptr, ptr %9, align 8, !tbaa !3
  %104 = getelementptr inbounds nuw %struct._lv_fragment_class_t, ptr %103, i32 0, i32 6
  %105 = load ptr, ptr %104, align 8, !tbaa !30
  %106 = load ptr, ptr %2, align 8, !tbaa !3
  %107 = load ptr, ptr %2, align 8, !tbaa !3
  %108 = getelementptr inbounds nuw %struct._lv_fragment_t, ptr %107, i32 0, i32 3
  %109 = load ptr, ptr %108, align 8, !tbaa !19
  call void %105(ptr noundef %106, ptr noundef %109)
  br label %110

110:                                              ; preds = %102, %94
  %111 = load ptr, ptr %2, align 8, !tbaa !3
  %112 = getelementptr inbounds nuw %struct._lv_fragment_t, ptr %111, i32 0, i32 3
  %113 = load ptr, ptr %112, align 8, !tbaa !19
  call void @lv_obj_delete(ptr noundef %113)
  %114 = load ptr, ptr %9, align 8, !tbaa !3
  %115 = getelementptr inbounds nuw %struct._lv_fragment_class_t, ptr %114, i32 0, i32 7
  %116 = load ptr, ptr %115, align 8, !tbaa !31
  %117 = icmp ne ptr %116, null
  br i1 %117, label %118, label %126

118:                                              ; preds = %110
  %119 = load ptr, ptr %9, align 8, !tbaa !3
  %120 = getelementptr inbounds nuw %struct._lv_fragment_class_t, ptr %119, i32 0, i32 7
  %121 = load ptr, ptr %120, align 8, !tbaa !31
  %122 = load ptr, ptr %2, align 8, !tbaa !3
  %123 = load ptr, ptr %2, align 8, !tbaa !3
  %124 = getelementptr inbounds nuw %struct._lv_fragment_t, ptr %123, i32 0, i32 3
  %125 = load ptr, ptr %124, align 8, !tbaa !19
  call void %121(ptr noundef %122, ptr noundef %125)
  br label %126

126:                                              ; preds = %118, %110
  %127 = load ptr, ptr %3, align 8, !tbaa !3
  %128 = icmp ne ptr %127, null
  br i1 %128, label %129, label %132

129:                                              ; preds = %126
  %130 = load ptr, ptr %3, align 8, !tbaa !3
  %131 = getelementptr inbounds nuw %struct._lv_fragment_managed_states_t, ptr %130, i32 0, i32 4
  store i8 0, ptr %131, align 8, !tbaa !21
  br label %132

132:                                              ; preds = %129, %126
  %133 = load ptr, ptr %2, align 8, !tbaa !3
  %134 = getelementptr inbounds nuw %struct._lv_fragment_t, ptr %133, i32 0, i32 3
  store ptr null, ptr %134, align 8, !tbaa !19
  call void @llvm.lifetime.end.p0(i64 8, ptr %9) #3
  store i32 0, ptr %4, align 4
  br label %135

135:                                              ; preds = %132, %32
  call void @llvm.lifetime.end.p0(i64 8, ptr %3) #3
  %136 = load i32, ptr %4, align 4
  switch i32 %136, label %138 [
    i32 0, label %137
    i32 1, label %137
  ]

137:                                              ; preds = %135, %135
  ret void

138:                                              ; preds = %135, %61
  unreachable
}