; Function Attrs: nounwind uwtable
define void @lv_fragment_delete_obj(ptr noundef %0) local_unnamed_addr #0 {
  %.not = icmp eq ptr %0, null
  br i1 %.not, label %.preheader, label %2

.preheader:                                       ; preds = %1, %.preheader
  br label %.preheader

2:                                                ; preds = %1
  %3 = getelementptr inbounds nuw i8, ptr %0, i64 16
  %4 = load ptr, ptr %3, align 8, !tbaa !12
  tail call void @lv_fragment_manager_delete_obj(ptr noundef %4) #4
  %5 = getelementptr inbounds nuw i8, ptr %0, i64 8
  %6 = load ptr, ptr %5, align 8, !tbaa !14
  %.not38 = icmp eq ptr %6, null
  br i1 %.not38, label %25, label %7

7:                                                ; preds = %2
  %8 = getelementptr inbounds nuw i8, ptr %6, i64 32
  %9 = load i8, ptr %8, align 8, !tbaa !20, !range !21, !noundef !22
  %10 = trunc nuw i8 %9 to i1
  br i1 %10, label %11, label %43

11:                                               ; preds = %7
  %12 = getelementptr inbounds nuw i8, ptr %6, i64 33
  store i8 1, ptr %12, align 1, !tbaa !23
  %13 = getelementptr inbounds nuw i8, ptr %0, i64 24
  %14 = load ptr, ptr %13, align 8, !tbaa !18
  %15 = tail call i32 @lv_obj_get_event_count(ptr noundef %14) #4
  %.not49 = icmp eq i32 %15, 0
  br i1 %.not49, label %.critedge.preheader, label %.lr.ph

.lr.ph:                                           ; preds = %11, %23
  %.03048 = phi i32 [ %24, %23 ], [ 0, %11 ]
  %16 = load ptr, ptr %13, align 8, !tbaa !18
  %17 = tail call ptr @lv_obj_get_event_dsc(ptr noundef %16, i32 noundef %.03048) #4
  %18 = tail call ptr @lv_event_dsc_get_cb(ptr noundef %17) #4
  %19 = icmp eq ptr %18, @cb_delete_assertion
  br i1 %19, label %20, label %23

20:                                               ; preds = %.lr.ph
  %21 = load ptr, ptr %13, align 8, !tbaa !18
  %22 = tail call zeroext i1 @lv_obj_remove_event(ptr noundef %21, i32 noundef %.03048) #4
  br i1 %22, label %25, label %.critedge.preheader

23:                                               ; preds = %.lr.ph
  %24 = add nuw i32 %.03048, 1
  %exitcond.not = icmp eq i32 %24, %15
  br i1 %exitcond.not, label %.critedge.preheader, label %.lr.ph, !llvm.loop !24

.critedge.preheader:                              ; preds = %23, %11, %20
  br label %.critedge

.critedge:                                        ; preds = %.critedge.preheader, %.critedge
  br label %.critedge

25:                                               ; preds = %20, %2
  %26 = getelementptr inbounds nuw i8, ptr %0, i64 24
  %27 = load ptr, ptr %26, align 8, !tbaa !18
  %.not39 = icmp eq ptr %27, null
  br i1 %.not39, label %.preheader46, label %28

.preheader46:                                     ; preds = %25, %.preheader46
  br label %.preheader46

28:                                               ; preds = %25
  %29 = load ptr, ptr %0, align 8, !tbaa !10
  %30 = getelementptr inbounds nuw i8, ptr %29, i64 48
  %31 = load ptr, ptr %30, align 8, !tbaa !26
  %.not40 = icmp eq ptr %31, null
  br i1 %.not40, label %33, label %32

32:                                               ; preds = %28
  tail call void %31(ptr noundef nonnull %0, ptr noundef nonnull %27) #4
  %.pre = load ptr, ptr %26, align 8, !tbaa !18
  br label %33

33:                                               ; preds = %32, %28
  %34 = phi ptr [ %.pre, %32 ], [ %27, %28 ]
  tail call void @lv_obj_delete(ptr noundef %34) #4
  %35 = getelementptr inbounds nuw i8, ptr %29, i64 56
  %36 = load ptr, ptr %35, align 8, !tbaa !27
  %.not41 = icmp eq ptr %36, null
  br i1 %.not41, label %39, label %37

37:                                               ; preds = %33
  %38 = load ptr, ptr %26, align 8, !tbaa !18
  tail call void %36(ptr noundef nonnull %0, ptr noundef %38) #4
  br label %39

39:                                               ; preds = %37, %33
  br i1 %.not38, label %42, label %40

40:                                               ; preds = %39
  %41 = getelementptr inbounds nuw i8, ptr %6, i64 32
  store i8 0, ptr %41, align 8, !tbaa !20
  br label %42

42:                                               ; preds = %40, %39
  store ptr null, ptr %26, align 8, !tbaa !18
  br label %43

43:                                               ; preds = %7, %42
  ret void
}